	.file	"cread-alt.c"
	.text
	.globl	cread
	.type	cread, @function
cread:
.LFB0:
	.cfi_startproc
	pushq	%rbp
	.cfi_def_cfa_offset 16
	.cfi_offset 6, -16
	movq	%rsp, %rbp
	.cfi_def_cfa_register 6
	movq	%rdi, -8(%rbp)
	cmpq	$0, -8(%rbp)
	je	.L2
	movq	-8(%rbp), %rax
	movq	(%rax), %rax
	jmp	.L4
.L2:
	movl	$0, %eax
.L4:
	popq	%rbp
	.cfi_def_cfa 7, 8
	ret
	.cfi_endproc
.LFE0:
	.size	cread, .-cread
	.globl	cread_alt
	.type	cread_alt, @function
cread_alt:
.LFB1:
	.cfi_startproc
	pushq	%rbp
	.cfi_def_cfa_offset 16
	.cfi_offset 6, -16
	movq	%rsp, %rbp
	.cfi_def_cfa_register 6
	movq	%rdi, -8(%rbp)
	cmpq	$0, -8(%rbp)
	je	.L6
	movq	-8(%rbp), %rax
	movq	(%rax), %rax
	jmp	.L8
.L6:
	movl	$0, %eax
.L8:
	popq	%rbp
	.cfi_def_cfa 7, 8
	ret
	.cfi_endproc
.LFE1:
	.size	cread_alt, .-cread_alt
	.globl	cread_alt_test
	.type	cread_alt_test, @function
cread_alt_test:
.LFB2:
	.cfi_startproc
	pushq	%rbp
	.cfi_def_cfa_offset 16
	.cfi_offset 6, -16
	movq	%rsp, %rbp
	.cfi_def_cfa_register 6
	subq	$32, %rsp
	movq	%rdi, -24(%rbp)
	movq	%fs:40, %rax
	movq	%rax, -8(%rbp)
	xorl	%eax, %eax
	movq	$0, -16(%rbp)
	cmpq	$0, -24(%rbp)
	jne	.L10
	leaq	-16(%rbp), %rax
	jmp	.L11
.L10:
	movq	-24(%rbp), %rax
.L11:
	movq	(%rax), %rax
	movq	-8(%rbp), %rdx
	subq	%fs:40, %rdx
	je	.L13
	call	__stack_chk_fail@PLT
.L13:
	leave
	.cfi_def_cfa 7, 8
	ret
	.cfi_endproc
.LFE2:
	.size	cread_alt_test, .-cread_alt_test
	.section	.rodata
.LC0:
	.string	"cread-alt.c"
.LC1:
	.string	"cread(&a) == cread_alt(&a)"
	.align 8
.LC2:
	.string	"cread(NULL) == cread_alt(NULL)"
	.text
	.globl	main
	.type	main, @function
main:
.LFB3:
	.cfi_startproc
	pushq	%rbp
	.cfi_def_cfa_offset 16
	.cfi_offset 6, -16
	movq	%rsp, %rbp
	.cfi_def_cfa_register 6
	pushq	%rbx
	subq	$40, %rsp
	.cfi_offset 3, -24
	movl	%edi, -36(%rbp)
	movq	%rsi, -48(%rbp)
	movq	%fs:40, %rax
	movq	%rax, -24(%rbp)
	xorl	%eax, %eax
	movq	$0, -32(%rbp)
	leaq	-32(%rbp), %rax
	movq	%rax, %rdi
	call	cread
	movq	%rax, %rbx
	leaq	-32(%rbp), %rax
	movq	%rax, %rdi
	call	cread_alt
	cmpq	%rax, %rbx
	je	.L15
	leaq	__PRETTY_FUNCTION__.0(%rip), %rax
	movq	%rax, %rcx
	movl	$22, %edx
	leaq	.LC0(%rip), %rax
	movq	%rax, %rsi
	leaq	.LC1(%rip), %rax
	movq	%rax, %rdi
	call	__assert_fail@PLT
.L15:
	movl	$0, %edi
	call	cread
	movq	%rax, %rbx
	movl	$0, %edi
	call	cread_alt
	cmpq	%rax, %rbx
	je	.L16
	leaq	__PRETTY_FUNCTION__.0(%rip), %rax
	movq	%rax, %rcx
	movl	$23, %edx
	leaq	.LC0(%rip), %rax
	movq	%rax, %rsi
	leaq	.LC2(%rip), %rax
	movq	%rax, %rdi
	call	__assert_fail@PLT
.L16:
	movl	$0, %eax
	movq	-24(%rbp), %rdx
	subq	%fs:40, %rdx
	je	.L18
	call	__stack_chk_fail@PLT
.L18:
	movq	-8(%rbp), %rbx
	leave
	.cfi_def_cfa 7, 8
	ret
	.cfi_endproc
.LFE3:
	.size	main, .-main
	.section	.rodata
	.type	__PRETTY_FUNCTION__.0, @object
	.size	__PRETTY_FUNCTION__.0, 5
__PRETTY_FUNCTION__.0:
	.string	"main"
	.ident	"GCC: (GNU) 12.2.1 20230201"
	.section	.note.GNU-stack,"",@progbits
